target datalayout = "e-m:e-p270:32:32-p271:32:32-p272:64:64-i64:64-i128:128-f80:128-n8:16:32:64-S128"
target triple = "x86_64-pc-linux-gnu"

%"class.std::map.90" = type { %"class.std::_Rb_tree.91" }
%"class.std::_Rb_tree.91" = type { %"struct.std::_Rb_tree<double, std::pair<const double, pxrInternal_v0_24__pxrReserved__::VtValue>, std::_Select1st<std::pair<const double, pxrInternal_v0_24__pxrReserved__::VtValue>>, std::less<double>>::_Rb_tree_impl" }
%"struct.std::_Rb_tree<double, std::pair<const double, pxrInternal_v0_24__pxrReserved__::VtValue>, std::_Select1st<std::pair<const double, pxrInternal_v0_24__pxrReserved__::VtValue>>, std::less<double>>::_Rb_tree_impl" = type { [8 x i8], %"struct.std::_Rb_tree_header" }
%"struct.std::_Rb_tree_header" = type { %"struct.std::_Rb_tree_node_base", i64 }
%"struct.std::_Rb_tree_node_base" = type { i32, ptr, ptr, ptr }
%class.anon = type { %"class.std::map.90" }

; Function Attrs: mustprogress nounwind uwtable
define linkonce_odr void @_ZNSt15__new_allocatorISt13_Rb_tree_nodeISt4pairIKdN32pxrInternal_v0_24__pxrReserved__7VtValueEEEED2Ev(ptr noundef nonnull align 1 dereferenceable(1) %0) unnamed_addr #1 comdat align 2 {
  %2 = alloca ptr, align 8
  store ptr %0, ptr %2, align 8
  ret void
}

; Function Attrs: mustprogress nounwind uwtable
define linkonce_odr void @_ZNSaISt13_Rb_tree_nodeISt4pairIKdN32pxrInternal_v0_24__pxrReserved__7VtValueEEEED2Ev(ptr noundef nonnull align 1 dereferenceable(1) %0) unnamed_addr #1 comdat align 2 {
  %2 = alloca ptr, align 8
  store ptr %0, ptr %2, align 8
  %3 = load ptr, ptr %2, align 8
  call void @_ZNSt15__new_allocatorISt13_Rb_tree_nodeISt4pairIKdN32pxrInternal_v0_24__pxrReserved__7VtValueEEEED2Ev(ptr noundef nonnull align 1 dereferenceable(1) %3) #12
  ret void
}

; Function Attrs: mustprogress nounwind uwtable
define linkonce_odr noundef ptr @_ZNKSt8_Rb_treeIdSt4pairIKdN32pxrInternal_v0_24__pxrReserved__7VtValueEESt10_Select1stIS4_ESt4lessIdESaIS4_EE9_M_mbeginEv(ptr noundef nonnull align 8 dereferenceable(48) %0) #1 comdat align 2 {
  %2 = alloca ptr, align 8
  store ptr %0, ptr %2, align 8
  %3 = load ptr, ptr %2, align 8
  %4 = getelementptr inbounds nuw %"class.std::_Rb_tree.91", ptr %3, i32 0, i32 0
  %5 = getelementptr inbounds i8, ptr %4, i64 8
  %6 = getelementptr inbounds nuw %"struct.std::_Rb_tree_header", ptr %5, i32 0, i32 0
  %7 = getelementptr inbounds nuw %"struct.std::_Rb_tree_node_base", ptr %6, i32 0, i32 1
  %8 = load ptr, ptr %7, align 8
  ret ptr %8
}

; Function Attrs: mustprogress nounwind uwtable
define linkonce_odr void @_ZNSt8_Rb_treeIdSt4pairIKdN32pxrInternal_v0_24__pxrReserved__7VtValueEESt10_Select1stIS4_ESt4lessIdESaIS4_EE13_Rb_tree_implIS8_Lb1EED2Ev(ptr noundef nonnull align 8 dereferenceable(48) %0) unnamed_addr #1 comdat align 2 {
  %2 = alloca ptr, align 8
  store ptr %0, ptr %2, align 8
  %3 = load ptr, ptr %2, align 8
  call void @_ZNSaISt13_Rb_tree_nodeISt4pairIKdN32pxrInternal_v0_24__pxrReserved__7VtValueEEEED2Ev(ptr noundef nonnull align 1 dereferenceable(1) %3) #12
  ret void
}

; Function Attrs: mustprogress nounwind uwtable
define linkonce_odr noundef ptr @_ZNSt8_Rb_treeIdSt4pairIKdN32pxrInternal_v0_24__pxrReserved__7VtValueEESt10_Select1stIS4_ESt4lessIdESaIS4_EE8_M_beginEv(ptr noundef nonnull align 8 dereferenceable(48) %0) #1 comdat align 2 {
  %2 = alloca ptr, align 8
  store ptr %0, ptr %2, align 8
  %3 = load ptr, ptr %2, align 8
  %4 = call noundef ptr @_ZNKSt8_Rb_treeIdSt4pairIKdN32pxrInternal_v0_24__pxrReserved__7VtValueEESt10_Select1stIS4_ESt4lessIdESaIS4_EE9_M_mbeginEv(ptr noundef nonnull align 8 dereferenceable(48) %3) #12
  ret ptr %4
}

; Function Attrs: mustprogress nounwind uwtable
define linkonce_odr void @_ZNSt8_Rb_treeIdSt4pairIKdN32pxrInternal_v0_24__pxrReserved__7VtValueEESt10_Select1stIS4_ESt4lessIdESaIS4_EED2Ev(ptr noundef nonnull align 8 dereferenceable(48) %0) unnamed_addr #1 comdat align 2 personality ptr @__gxx_personality_v0 {
  %2 = alloca ptr, align 8
  store ptr %0, ptr %2, align 8
  %3 = load ptr, ptr %2, align 8
  %4 = call noundef ptr @_ZNSt8_Rb_treeIdSt4pairIKdN32pxrInternal_v0_24__pxrReserved__7VtValueEESt10_Select1stIS4_ESt4lessIdESaIS4_EE8_M_beginEv(ptr noundef nonnull align 8 dereferenceable(48) %3) #12
  invoke void @_ZNSt8_Rb_treeIdSt4pairIKdN32pxrInternal_v0_24__pxrReserved__7VtValueEESt10_Select1stIS4_ESt4lessIdESaIS4_EE8_M_eraseEPSt13_Rb_tree_nodeIS4_E(ptr noundef nonnull align 8 dereferenceable(48) %3, ptr noundef %4)
          to label %5 unwind label %7

5:                                                ; preds = %1
  %6 = getelementptr inbounds nuw %"class.std::_Rb_tree.91", ptr %3, i32 0, i32 0
  call void @_ZNSt8_Rb_treeIdSt4pairIKdN32pxrInternal_v0_24__pxrReserved__7VtValueEESt10_Select1stIS4_ESt4lessIdESaIS4_EE13_Rb_tree_implIS8_Lb1EED2Ev(ptr noundef nonnull align 8 dereferenceable(48) %6) #12
  ret void

7:                                                ; preds = %1
  %8 = landingpad { ptr, i32 }
          catch ptr null
  %9 = extractvalue { ptr, i32 } %8, 0
  call void @__clang_call_terminate(ptr %9) #13
  unreachable
}

; Function Attrs: mustprogress nounwind uwtable
define linkonce_odr void @_ZNSt3mapIdN32pxrInternal_v0_24__pxrReserved__7VtValueESt4lessIdESaISt4pairIKdS1_EEED2Ev(ptr noundef nonnull align 8 dereferenceable(48) %0) unnamed_addr #1 comdat align 2 {
  %2 = alloca ptr, align 8
  store ptr %0, ptr %2, align 8
  %3 = load ptr, ptr %2, align 8
  %4 = getelementptr inbounds nuw %"class.std::map.90", ptr %3, i32 0, i32 0
  call void @_ZNSt8_Rb_treeIdSt4pairIKdN32pxrInternal_v0_24__pxrReserved__7VtValueEESt10_Select1stIS4_ESt4lessIdESaIS4_EED2Ev(ptr noundef nonnull align 8 dereferenceable(48) %4) #12
  ret void
}

; Function Attrs: mustprogress nounwind uwtable
define internal void @"_ZZN32pxrInternal_v0_24__pxrReserved__12_GLOBAL__N_113_MergeValueFnENS_11SdfSpecTypeERKNS_7TfTokenERKNS_9TfWeakPtrINS_8SdfLayerEEERKNS_7SdfPathEbS9_SC_bPSt8optionalINS_7VtValueEERKSt8functionIFNS_25UsdUtilsStitchValueStatusES4_SC_S9_bS9_bPSE_EEEN3$_0D2Ev"(ptr noundef nonnull align 8 dereferenceable(48) %0) unnamed_addr #1 align 2 {
  %2 = alloca ptr, align 8
  store ptr %0, ptr %2, align 8
  %3 = load ptr, ptr %2, align 8
  %4 = getelementptr inbounds nuw %class.anon, ptr %3, i32 0, i32 0
  call void @_ZNSt3mapIdN32pxrInternal_v0_24__pxrReserved__7VtValueESt4lessIdESaISt4pairIKdS1_EEED2Ev(ptr noundef nonnull align 8 dereferenceable(48) %4) #12
  ret void
}