; Function Attrs: mustprogress nounwind uwtable
define internal fastcc void @"_ZZN32pxrInternal_v0_24__pxrReserved__12_GLOBAL__N_113_MergeValueFnENS_11SdfSpecTypeERKNS_7TfTokenERKNS_9TfWeakPtrINS_8SdfLayerEEERKNS_7SdfPathEbS9_SC_bPSt8optionalINS_7VtValueEERKSt8functionIFNS_25UsdUtilsStitchValueStatusES4_SC_S9_bS9_bPSE_EEEN3$_0D2Ev"(ptr noundef nonnull align 8 dereferenceable(48) %0) unnamed_addr #3 align 2 personality ptr @__gxx_personality_v0 {
  %2 = getelementptr inbounds i8, ptr %0, i64 16
  %3 = load ptr, ptr %2, align 8
  invoke void @_ZNSt8_Rb_treeIdSt4pairIKdN32pxrInternal_v0_24__pxrReserved__7VtValueEESt10_Select1stIS4_ESt4lessIdESaIS4_EE8_M_eraseEPSt13_Rb_tree_nodeIS4_E(ptr noundef nonnull align 8 dereferenceable(48) %0, ptr noundef %3)
          to label %_ZNSt3mapIdN32pxrInternal_v0_24__pxrReserved__7VtValueESt4lessIdESaISt4pairIKdS1_EEED2Ev.exit unwind label %4

4:                                                ; preds = %1
  %5 = landingpad { ptr, i32 }
          catch ptr null
  %6 = extractvalue { ptr, i32 } %5, 0
  tail call void @__clang_call_terminate(ptr %6) #18
  unreachable

_ZNSt3mapIdN32pxrInternal_v0_24__pxrReserved__7VtValueESt4lessIdESaISt4pairIKdS1_EEED2Ev.exit: ; preds = %1
  ret void
}